; Function Attrs: nounwind uwtable
define dso_local noundef i32 @PyErr_BadArgument() local_unnamed_addr #0 {
  %1 = tail call align 8 ptr @llvm.threadlocal.address.p0(ptr align 8 @_Py_tss_tstate)
  %2 = load ptr, ptr %1, align 8, !tbaa !25
  %3 = load ptr, ptr @PyExc_TypeError, align 8, !tbaa !24
  %4 = tail call ptr @PyUnicode_FromString(ptr noundef nonnull @.str.7) #17
  %.not.i = icmp eq ptr %4, null
  br i1 %.not.i, label %_PyErr_SetString.exit, label %5

5:                                                ; preds = %0
  tail call void @_PyErr_SetObject(ptr noundef %2, ptr noundef %3, ptr noundef nonnull %4)
  %6 = load i32, ptr %4, align 8, !tbaa !20
  %.not.i.i = icmp sgt i32 %6, -1
  br i1 %.not.i.i, label %7, label %_PyErr_SetString.exit

7:                                                ; preds = %5
  %8 = add nsw i32 %6, -1
  store i32 %8, ptr %4, align 8, !tbaa !20
  %9 = icmp eq i32 %8, 0
  br i1 %9, label %10, label %_PyErr_SetString.exit

10:                                               ; preds = %7
  tail call void @_Py_Dealloc(ptr noundef nonnull %4) #17
  br label %_PyErr_SetString.exit

_PyErr_SetString.exit:                            ; preds = %0, %5, %7, %10
  ret i32 0
}